target datalayout = "e-m:e-p270:32:32-p271:32:32-p272:64:64-i64:64-i128:128-f80:128-n8:16:32:64-S128"
target triple = "x86_64-pc-linux-gnu"

%struct._zend_array = type { %struct._zend_refcounted_h, %union.anon.0, i32, %union.anon.1, i32, i32, i32, i32, i64, ptr }
%struct._zend_refcounted_h = type { i32, %union.anon }
%union.anon = type { i32 }
%union.anon.0 = type { i32 }
%union.anon.1 = type { ptr }
%struct._zval_struct = type { %union._zend_value, %union.anon.3, %union.anon.6 }
%union._zend_value = type { i64 }
%union.anon.3 = type { i32 }
%union.anon.6 = type { i32 }
%struct._zend_string = type { %struct._zend_refcounted_h, i64, i64, [1 x i8] }
%struct.anon.4 = type { i8, i8, %union.anon.5 }
%union.anon.5 = type { i16 }
%struct._Bucket = type { %struct._zval_struct, i64, ptr }

@php_hash_hashtable = internal global %struct._zend_array zeroinitializer, align 8
@.str.95 = private unnamed_addr constant [4 x i8] c"%s \00", align 1
@.str.96 = private unnamed_addr constant [13 x i8] c"hash support\00", align 1
@.str.97 = private unnamed_addr constant [8 x i8] c"enabled\00", align 1
@.str.98 = private unnamed_addr constant [16 x i8] c"Hashing Engines\00", align 1

; Function Attrs: alwaysinline nounwind uwtable
define internal zeroext i8 @zval_get_type(ptr noundef %0) #2 {
  %2 = alloca ptr, align 8
  store ptr %0, ptr %2, align 8, !tbaa !13
  %3 = load ptr, ptr %2, align 8, !tbaa !13
  %4 = getelementptr inbounds nuw %struct._zval_struct, ptr %3, i32 0, i32 1
  %5 = getelementptr inbounds nuw %struct.anon.4, ptr %4, i32 0, i32 0
  %6 = load i8, ptr %5, align 8, !tbaa !15
  ret i8 %6
}

; Function Attrs: nounwind uwtable
define hidden void @zm_info_hash(ptr noundef %0) #0 {
  %2 = alloca ptr, align 8
  %3 = alloca [2048 x i8], align 16
  %4 = alloca ptr, align 8
  %5 = alloca ptr, align 8
  %6 = alloca ptr, align 8
  %7 = alloca ptr, align 8
  %8 = alloca ptr, align 8
  %9 = alloca ptr, align 8
  %10 = alloca ptr, align 8
  %11 = alloca i32, align 4
  store ptr %0, ptr %2, align 8, !tbaa !143
  call void @llvm.lifetime.start.p0(i64 2048, ptr %3) #16
  call void @llvm.lifetime.start.p0(i64 8, ptr %4) #16
  call void @llvm.lifetime.start.p0(i64 8, ptr %5) #16
  %12 = getelementptr inbounds [2048 x i8], ptr %3, i64 0, i64 0
  store ptr %12, ptr %5, align 8, !tbaa !16
  call void @llvm.lifetime.start.p0(i64 8, ptr %6) #16
  %13 = load ptr, ptr %5, align 8, !tbaa !16
  %14 = getelementptr inbounds nuw i8, ptr %13, i64 2048
  store ptr %14, ptr %6, align 8, !tbaa !16
  br label %15

15:                                               ; preds = %1
  call void @llvm.lifetime.start.p0(i64 8, ptr %7) #16
  store ptr @php_hash_hashtable, ptr %7, align 8, !tbaa !11
  call void @llvm.lifetime.start.p0(i64 8, ptr %8) #16
  %16 = load ptr, ptr %7, align 8, !tbaa !11
  %17 = getelementptr inbounds nuw %struct._zend_array, ptr %16, i32 0, i32 3
  %18 = load ptr, ptr %17, align 8, !tbaa !15
  %19 = getelementptr inbounds %struct._Bucket, ptr %18, i64 0
  store ptr %19, ptr %8, align 8, !tbaa !105
  call void @llvm.lifetime.start.p0(i64 8, ptr %9) #16
  %20 = load ptr, ptr %7, align 8, !tbaa !11
  %21 = getelementptr inbounds nuw %struct._zend_array, ptr %20, i32 0, i32 3
  %22 = load ptr, ptr %21, align 8, !tbaa !15
  %23 = load ptr, ptr %7, align 8, !tbaa !11
  %24 = getelementptr inbounds nuw %struct._zend_array, ptr %23, i32 0, i32 4
  %25 = load i32, ptr %24, align 8, !tbaa !107
  %26 = zext i32 %25 to i64
  %27 = getelementptr inbounds nuw %struct._Bucket, ptr %22, i64 %26
  store ptr %27, ptr %9, align 8, !tbaa !105
  %28 = load ptr, ptr %7, align 8, !tbaa !11
  %29 = getelementptr inbounds nuw %struct._zend_array, ptr %28, i32 0, i32 1
  %30 = load i32, ptr %29, align 8, !tbaa !15
  %31 = and i32 %30, 4
  %32 = icmp ne i32 %31, 0
  %33 = xor i1 %32, true
  call void @llvm.assume(i1 %33)
  br label %34

34:                                               ; preds = %72, %15
  %35 = load ptr, ptr %8, align 8, !tbaa !105
  %36 = load ptr, ptr %9, align 8, !tbaa !105
  %37 = icmp ne ptr %35, %36
  br i1 %37, label %38, label %75

38:                                               ; preds = %34
  call void @llvm.lifetime.start.p0(i64 8, ptr %10) #16
  %39 = load ptr, ptr %8, align 8, !tbaa !105
  %40 = getelementptr inbounds nuw %struct._Bucket, ptr %39, i32 0, i32 0
  store ptr %40, ptr %10, align 8, !tbaa !13
  %41 = load ptr, ptr %10, align 8, !tbaa !13
  %42 = call zeroext i8 @zval_get_type(ptr noundef %41)
  %43 = zext i8 %42 to i32
  %44 = icmp eq i32 %43, 0
  %45 = xor i1 %44, true
  %46 = xor i1 %45, true
  %47 = zext i1 %46 to i32
  %48 = sext i32 %47 to i64
  %49 = call i64 @llvm.expect.i64(i64 %48, i64 0)
  %50 = icmp ne i64 %49, 0
  br i1 %50, label %51, label %52

51:                                               ; preds = %38
  store i32 6, ptr %11, align 4
  br label %69

52:                                               ; preds = %38
  %53 = load ptr, ptr %8, align 8, !tbaa !105
  %54 = getelementptr inbounds nuw %struct._Bucket, ptr %53, i32 0, i32 2
  %55 = load ptr, ptr %54, align 8, !tbaa !108
  store ptr %55, ptr %4, align 8, !tbaa !4
  %56 = load ptr, ptr %5, align 8, !tbaa !16
  %57 = load ptr, ptr %6, align 8, !tbaa !16
  %58 = load ptr, ptr %5, align 8, !tbaa !16
  %59 = ptrtoint ptr %57 to i64
  %60 = ptrtoint ptr %58 to i64
  %61 = sub i64 %59, %60
  %62 = load ptr, ptr %4, align 8, !tbaa !4
  %63 = getelementptr inbounds nuw %struct._zend_string, ptr %62, i32 0, i32 3
  %64 = getelementptr inbounds [1 x i8], ptr %63, i64 0, i64 0
  %65 = call i32 (ptr, i64, ptr, ...) @ap_php_slprintf(ptr noundef %56, i64 noundef %61, ptr noundef @.str.95, ptr noundef %64)
  %66 = load ptr, ptr %5, align 8, !tbaa !16
  %67 = sext i32 %65 to i64
  %68 = getelementptr inbounds i8, ptr %66, i64 %67
  store ptr %68, ptr %5, align 8, !tbaa !16
  store i32 0, ptr %11, align 4
  br label %69

69:                                               ; preds = %52, %51
  call void @llvm.lifetime.end.p0(i64 8, ptr %10) #16
  %70 = load i32, ptr %11, align 4
  switch i32 %70, label %80 [
    i32 0, label %71
    i32 6, label %72
  ]

71:                                               ; preds = %69
  br label %72

72:                                               ; preds = %71, %69
  %73 = load ptr, ptr %8, align 8, !tbaa !105
  %74 = getelementptr inbounds nuw %struct._Bucket, ptr %73, i32 1
  store ptr %74, ptr %8, align 8, !tbaa !105
  br label %34

75:                                               ; preds = %34
  call void @llvm.lifetime.end.p0(i64 8, ptr %9) #16
  call void @llvm.lifetime.end.p0(i64 8, ptr %8) #16
  call void @llvm.lifetime.end.p0(i64 8, ptr %7) #16
  br label %76

76:                                               ; preds = %75
  br label %77

77:                                               ; preds = %76
  %78 = load ptr, ptr %5, align 8, !tbaa !16
  store i8 0, ptr %78, align 1, !tbaa !15
  call void @php_info_print_table_start()
  call void (i32, ...) @php_info_print_table_row(i32 noundef 2, ptr noundef @.str.96, ptr noundef @.str.97)
  %79 = getelementptr inbounds [2048 x i8], ptr %3, i64 0, i64 0
  call void (i32, ...) @php_info_print_table_row(i32 noundef 2, ptr noundef @.str.98, ptr noundef %79)
  call void @php_info_print_table_end()
  call void @llvm.lifetime.end.p0(i64 8, ptr %6) #16
  call void @llvm.lifetime.end.p0(i64 8, ptr %5) #16
  call void @llvm.lifetime.end.p0(i64 8, ptr %4) #16
  call void @llvm.lifetime.end.p0(i64 2048, ptr %3) #16
  ret void

80:                                               ; preds = %69
  unreachable
}