; Function Attrs: nounwind uwtable
define hidden void @zm_info_hash(ptr readnone captures(none) %0) #0 {
  %2 = alloca [2048 x i8], align 16
  call void @llvm.lifetime.start.p0(i64 2048, ptr nonnull %2) #16
  %3 = load ptr, ptr getelementptr inbounds nuw (i8, ptr @php_hash_hashtable, i64 16), align 8, !tbaa !4
  %4 = load i32, ptr getelementptr inbounds nuw (i8, ptr @php_hash_hashtable, i64 24), align 8, !tbaa !92
  %5 = zext i32 %4 to i64
  %6 = getelementptr inbounds nuw %struct._Bucket, ptr %3, i64 %5
  %7 = load i32, ptr getelementptr inbounds nuw (i8, ptr @php_hash_hashtable, i64 8), align 8, !tbaa !4
  %8 = and i32 %7, 4
  %.not = icmp eq i32 %8, 0
  tail call void @llvm.assume(i1 %.not)
  %.not1819 = icmp eq i32 %4, 0
  br i1 %.not1819, label %._crit_edge, label %.lr.ph

.lr.ph:                                           ; preds = %1
  %9 = getelementptr inbounds nuw i8, ptr %2, i64 2048
  %10 = ptrtoint ptr %9 to i64
  br label %11

11:                                               ; preds = %.lr.ph, %24
  %.021 = phi ptr [ %2, %.lr.ph ], [ %.1, %24 ]
  %.01720 = phi ptr [ %3, %.lr.ph ], [ %25, %24 ]
  %12 = getelementptr inbounds nuw i8, ptr %.01720, i64 8
  %13 = load i8, ptr %12, align 8, !tbaa !4
  %14 = icmp eq i8 %13, 0
  br i1 %14, label %24, label %15, !prof !44

15:                                               ; preds = %11
  %16 = getelementptr inbounds nuw i8, ptr %.01720, i64 24
  %17 = load ptr, ptr %16, align 8, !tbaa !93
  %18 = ptrtoint ptr %.021 to i64
  %19 = sub i64 %10, %18
  %20 = getelementptr inbounds nuw i8, ptr %17, i64 24
  %21 = call i32 (ptr, i64, ptr, ...) @ap_php_slprintf(ptr noundef %.021, i64 noundef %19, ptr noundef nonnull @.str.95, ptr noundef nonnull %20) #16
  %22 = sext i32 %21 to i64
  %23 = getelementptr inbounds i8, ptr %.021, i64 %22
  br label %24

24:                                               ; preds = %11, %15
  %.1 = phi ptr [ %23, %15 ], [ %.021, %11 ]
  %25 = getelementptr inbounds nuw i8, ptr %.01720, i64 32
  %.not18 = icmp eq ptr %25, %6
  br i1 %.not18, label %._crit_edge, label %11

._crit_edge:                                      ; preds = %24, %1
  %.0.lcssa = phi ptr [ %2, %1 ], [ %.1, %24 ]
  store i8 0, ptr %.0.lcssa, align 1, !tbaa !4
  call void @php_info_print_table_start() #16
  call void (i32, ...) @php_info_print_table_row(i32 noundef 2, ptr noundef nonnull @.str.96, ptr noundef nonnull @.str.97) #16
  call void (i32, ...) @php_info_print_table_row(i32 noundef 2, ptr noundef nonnull @.str.98, ptr noundef nonnull %2) #16
  call void @php_info_print_table_end() #16
  call void @llvm.lifetime.end.p0(i64 2048, ptr nonnull %2) #16
  ret void
}